target datalayout = "e-m:e-p270:32:32-p271:32:32-p272:64:64-i64:64-i128:128-f80:128-n8:16:32:64-S128"
target triple = "x86_64-pc-linux-gnu"

%struct.AVMotionEstContext = type { ptr, ptr, i32, i32, i32, i32, i32, i32, i32, i32, i32, i32, i32, [2 x %struct.AVMotionEstPredictor], ptr }
%struct.AVMotionEstPredictor = type { [10 x [2 x i32]], i32 }

; Function Attrs: alwaysinline nounwind willreturn memory(none) uwtable
define internal i32 @av_clip_c(i32 noundef %0, i32 noundef %1, i32 noundef %2) #7 {
  %4 = alloca i32, align 4
  %5 = alloca i32, align 4
  %6 = alloca i32, align 4
  %7 = alloca i32, align 4
  store i32 %0, ptr %5, align 4, !tbaa !34
  store i32 %1, ptr %6, align 4, !tbaa !34
  store i32 %2, ptr %7, align 4, !tbaa !34
  %8 = load i32, ptr %5, align 4, !tbaa !34
  %9 = load i32, ptr %6, align 4, !tbaa !34
  %10 = icmp slt i32 %8, %9
  br i1 %10, label %11, label %13

11:                                               ; preds = %3
  %12 = load i32, ptr %6, align 4, !tbaa !34
  store i32 %12, ptr %4, align 4
  br label %21

13:                                               ; preds = %3
  %14 = load i32, ptr %5, align 4, !tbaa !34
  %15 = load i32, ptr %7, align 4, !tbaa !34
  %16 = icmp sgt i32 %14, %15
  br i1 %16, label %17, label %19

17:                                               ; preds = %13
  %18 = load i32, ptr %7, align 4, !tbaa !34
  store i32 %18, ptr %4, align 4
  br label %21

19:                                               ; preds = %13
  %20 = load i32, ptr %5, align 4, !tbaa !34
  store i32 %20, ptr %4, align 4
  br label %21

21:                                               ; preds = %19, %17, %11
  %22 = load i32, ptr %4, align 4
  ret i32 %22
}

; Function Attrs: nounwind uwtable
define internal i64 @get_sad_ob(ptr noundef %0, i32 noundef %1, i32 noundef %2, i32 noundef %3, i32 noundef %4) #1 {
  %6 = alloca ptr, align 8
  %7 = alloca i32, align 4
  %8 = alloca i32, align 4
  %9 = alloca i32, align 4
  %10 = alloca i32, align 4
  %11 = alloca ptr, align 8
  %12 = alloca ptr, align 8
  %13 = alloca i32, align 4
  %14 = alloca i32, align 4
  %15 = alloca i32, align 4
  %16 = alloca i32, align 4
  %17 = alloca i32, align 4
  %18 = alloca i32, align 4
  %19 = alloca i32, align 4
  %20 = alloca i32, align 4
  %21 = alloca i32, align 4
  %22 = alloca i64, align 8
  store ptr %0, ptr %6, align 8, !tbaa !66
  store i32 %1, ptr %7, align 4, !tbaa !34
  store i32 %2, ptr %8, align 4, !tbaa !34
  store i32 %3, ptr %9, align 4, !tbaa !34
  store i32 %4, ptr %10, align 4, !tbaa !34
  call void @llvm.lifetime.start.p0(i64 8, ptr %11) #12
  %23 = load ptr, ptr %6, align 8, !tbaa !66
  %24 = getelementptr inbounds nuw %struct.AVMotionEstContext, ptr %23, i32 0, i32 1
  %25 = load ptr, ptr %24, align 8, !tbaa !153
  store ptr %25, ptr %11, align 8, !tbaa !102
  call void @llvm.lifetime.start.p0(i64 8, ptr %12) #12
  %26 = load ptr, ptr %6, align 8, !tbaa !66
  %27 = getelementptr inbounds nuw %struct.AVMotionEstContext, ptr %26, i32 0, i32 0
  %28 = load ptr, ptr %27, align 8, !tbaa !152
  store ptr %28, ptr %12, align 8, !tbaa !102
  call void @llvm.lifetime.start.p0(i64 4, ptr %13) #12
  %29 = load ptr, ptr %6, align 8, !tbaa !66
  %30 = getelementptr inbounds nuw %struct.AVMotionEstContext, ptr %29, i32 0, i32 2
  %31 = load i32, ptr %30, align 8, !tbaa !154
  store i32 %31, ptr %13, align 4, !tbaa !34
  call void @llvm.lifetime.start.p0(i64 4, ptr %14) #12
  %32 = load ptr, ptr %6, align 8, !tbaa !66
  %33 = getelementptr inbounds nuw %struct.AVMotionEstContext, ptr %32, i32 0, i32 7
  %34 = load i32, ptr %33, align 4, !tbaa !155
  %35 = load ptr, ptr %6, align 8, !tbaa !66
  %36 = getelementptr inbounds nuw %struct.AVMotionEstContext, ptr %35, i32 0, i32 3
  %37 = load i32, ptr %36, align 4, !tbaa !159
  %38 = sdiv i32 %37, 2
  %39 = add nsw i32 %34, %38
  store i32 %39, ptr %14, align 4, !tbaa !34
  call void @llvm.lifetime.start.p0(i64 4, ptr %15) #12
  %40 = load ptr, ptr %6, align 8, !tbaa !66
  %41 = getelementptr inbounds nuw %struct.AVMotionEstContext, ptr %40, i32 0, i32 8
  %42 = load i32, ptr %41, align 8, !tbaa !156
  %43 = load ptr, ptr %6, align 8, !tbaa !66
  %44 = getelementptr inbounds nuw %struct.AVMotionEstContext, ptr %43, i32 0, i32 3
  %45 = load i32, ptr %44, align 4, !tbaa !159
  %46 = sdiv i32 %45, 2
  %47 = sub nsw i32 %42, %46
  store i32 %47, ptr %15, align 4, !tbaa !34
  call void @llvm.lifetime.start.p0(i64 4, ptr %16) #12
  %48 = load ptr, ptr %6, align 8, !tbaa !66
  %49 = getelementptr inbounds nuw %struct.AVMotionEstContext, ptr %48, i32 0, i32 9
  %50 = load i32, ptr %49, align 4, !tbaa !157
  %51 = load ptr, ptr %6, align 8, !tbaa !66
  %52 = getelementptr inbounds nuw %struct.AVMotionEstContext, ptr %51, i32 0, i32 3
  %53 = load i32, ptr %52, align 4, !tbaa !159
  %54 = sdiv i32 %53, 2
  %55 = add nsw i32 %50, %54
  store i32 %55, ptr %16, align 4, !tbaa !34
  call void @llvm.lifetime.start.p0(i64 4, ptr %17) #12
  %56 = load ptr, ptr %6, align 8, !tbaa !66
  %57 = getelementptr inbounds nuw %struct.AVMotionEstContext, ptr %56, i32 0, i32 10
  %58 = load i32, ptr %57, align 8, !tbaa !158
  %59 = load ptr, ptr %6, align 8, !tbaa !66
  %60 = getelementptr inbounds nuw %struct.AVMotionEstContext, ptr %59, i32 0, i32 3
  %61 = load i32, ptr %60, align 4, !tbaa !159
  %62 = sdiv i32 %61, 2
  %63 = sub nsw i32 %58, %62
  store i32 %63, ptr %17, align 4, !tbaa !34
  call void @llvm.lifetime.start.p0(i64 4, ptr %18) #12
  %64 = load i32, ptr %9, align 4, !tbaa !34
  %65 = load i32, ptr %7, align 4, !tbaa !34
  %66 = sub nsw i32 %64, %65
  store i32 %66, ptr %18, align 4, !tbaa !34
  call void @llvm.lifetime.start.p0(i64 4, ptr %19) #12
  %67 = load i32, ptr %10, align 4, !tbaa !34
  %68 = load i32, ptr %8, align 4, !tbaa !34
  %69 = sub nsw i32 %67, %68
  store i32 %69, ptr %19, align 4, !tbaa !34
  call void @llvm.lifetime.start.p0(i64 4, ptr %20) #12
  call void @llvm.lifetime.start.p0(i64 4, ptr %21) #12
  call void @llvm.lifetime.start.p0(i64 8, ptr %22) #12
  store i64 0, ptr %22, align 8, !tbaa !116
  %70 = load i32, ptr %7, align 4, !tbaa !34
  %71 = load i32, ptr %14, align 4, !tbaa !34
  %72 = load i32, ptr %15, align 4, !tbaa !34
  %73 = call i32 @av_clip_c(i32 noundef %70, i32 noundef %71, i32 noundef %72) #14
  store i32 %73, ptr %7, align 4, !tbaa !34
  %74 = load i32, ptr %8, align 4, !tbaa !34
  %75 = load i32, ptr %16, align 4, !tbaa !34
  %76 = load i32, ptr %17, align 4, !tbaa !34
  %77 = call i32 @av_clip_c(i32 noundef %74, i32 noundef %75, i32 noundef %76) #14
  store i32 %77, ptr %8, align 4, !tbaa !34
  %78 = load i32, ptr %9, align 4, !tbaa !34
  %79 = load i32, ptr %14, align 4, !tbaa !34
  %80 = load i32, ptr %15, align 4, !tbaa !34
  %81 = call i32 @av_clip_c(i32 noundef %78, i32 noundef %79, i32 noundef %80) #14
  store i32 %81, ptr %9, align 4, !tbaa !34
  %82 = load i32, ptr %10, align 4, !tbaa !34
  %83 = load i32, ptr %16, align 4, !tbaa !34
  %84 = load i32, ptr %17, align 4, !tbaa !34
  %85 = call i32 @av_clip_c(i32 noundef %82, i32 noundef %83, i32 noundef %84) #14
  store i32 %85, ptr %10, align 4, !tbaa !34
  %86 = load ptr, ptr %6, align 8, !tbaa !66
  %87 = getelementptr inbounds nuw %struct.AVMotionEstContext, ptr %86, i32 0, i32 3
  %88 = load i32, ptr %87, align 4, !tbaa !159
  %89 = sub nsw i32 0, %88
  %90 = sdiv i32 %89, 2
  store i32 %90, ptr %21, align 4, !tbaa !34
  br label %91

91:                                               ; preds = %214, %5
  %92 = load i32, ptr %21, align 4, !tbaa !34
  %93 = load ptr, ptr %6, align 8, !tbaa !66
  %94 = getelementptr inbounds nuw %struct.AVMotionEstContext, ptr %93, i32 0, i32 3
  %95 = load i32, ptr %94, align 4, !tbaa !159
  %96 = mul nsw i32 %95, 3
  %97 = sdiv i32 %96, 2
  %98 = icmp slt i32 %92, %97
  br i1 %98, label %99, label %217

99:                                               ; preds = %91
  %100 = load ptr, ptr %6, align 8, !tbaa !66
  %101 = getelementptr inbounds nuw %struct.AVMotionEstContext, ptr %100, i32 0, i32 3
  %102 = load i32, ptr %101, align 4, !tbaa !159
  %103 = sub nsw i32 0, %102
  %104 = sdiv i32 %103, 2
  store i32 %104, ptr %20, align 4, !tbaa !34
  br label %105

105:                                              ; preds = %210, %99
  %106 = load i32, ptr %20, align 4, !tbaa !34
  %107 = load ptr, ptr %6, align 8, !tbaa !66
  %108 = getelementptr inbounds nuw %struct.AVMotionEstContext, ptr %107, i32 0, i32 3
  %109 = load i32, ptr %108, align 4, !tbaa !159
  %110 = mul nsw i32 %109, 3
  %111 = sdiv i32 %110, 2
  %112 = icmp slt i32 %106, %111
  br i1 %112, label %113, label %213

113:                                              ; preds = %105
  %114 = load ptr, ptr %11, align 8, !tbaa !102
  %115 = load i32, ptr %9, align 4, !tbaa !34
  %116 = load i32, ptr %20, align 4, !tbaa !34
  %117 = add nsw i32 %115, %116
  %118 = load i32, ptr %10, align 4, !tbaa !34
  %119 = load i32, ptr %21, align 4, !tbaa !34
  %120 = add nsw i32 %118, %119
  %121 = load i32, ptr %13, align 4, !tbaa !34
  %122 = mul nsw i32 %120, %121
  %123 = add nsw i32 %117, %122
  %124 = sext i32 %123 to i64
  %125 = getelementptr inbounds i8, ptr %114, i64 %124
  %126 = load i8, ptr %125, align 1, !tbaa !130
  %127 = zext i8 %126 to i32
  %128 = load ptr, ptr %12, align 8, !tbaa !102
  %129 = load i32, ptr %7, align 4, !tbaa !34
  %130 = load i32, ptr %20, align 4, !tbaa !34
  %131 = add nsw i32 %129, %130
  %132 = load i32, ptr %8, align 4, !tbaa !34
  %133 = load i32, ptr %21, align 4, !tbaa !34
  %134 = add nsw i32 %132, %133
  %135 = load i32, ptr %13, align 4, !tbaa !34
  %136 = mul nsw i32 %134, %135
  %137 = add nsw i32 %131, %136
  %138 = sext i32 %137 to i64
  %139 = getelementptr inbounds i8, ptr %128, i64 %138
  %140 = load i8, ptr %139, align 1, !tbaa !130
  %141 = zext i8 %140 to i32
  %142 = sub nsw i32 %127, %141
  %143 = icmp sge i32 %142, 0
  br i1 %143, label %144, label %174

144:                                              ; preds = %113
  %145 = load ptr, ptr %11, align 8, !tbaa !102
  %146 = load i32, ptr %9, align 4, !tbaa !34
  %147 = load i32, ptr %20, align 4, !tbaa !34
  %148 = add nsw i32 %146, %147
  %149 = load i32, ptr %10, align 4, !tbaa !34
  %150 = load i32, ptr %21, align 4, !tbaa !34
  %151 = add nsw i32 %149, %150
  %152 = load i32, ptr %13, align 4, !tbaa !34
  %153 = mul nsw i32 %151, %152
  %154 = add nsw i32 %148, %153
  %155 = sext i32 %154 to i64
  %156 = getelementptr inbounds i8, ptr %145, i64 %155
  %157 = load i8, ptr %156, align 1, !tbaa !130
  %158 = zext i8 %157 to i32
  %159 = load ptr, ptr %12, align 8, !tbaa !102
  %160 = load i32, ptr %7, align 4, !tbaa !34
  %161 = load i32, ptr %20, align 4, !tbaa !34
  %162 = add nsw i32 %160, %161
  %163 = load i32, ptr %8, align 4, !tbaa !34
  %164 = load i32, ptr %21, align 4, !tbaa !34
  %165 = add nsw i32 %163, %164
  %166 = load i32, ptr %13, align 4, !tbaa !34
  %167 = mul nsw i32 %165, %166
  %168 = add nsw i32 %162, %167
  %169 = sext i32 %168 to i64
  %170 = getelementptr inbounds i8, ptr %159, i64 %169
  %171 = load i8, ptr %170, align 1, !tbaa !130
  %172 = zext i8 %171 to i32
  %173 = sub nsw i32 %158, %172
  br label %205

174:                                              ; preds = %113
  %175 = load ptr, ptr %11, align 8, !tbaa !102
  %176 = load i32, ptr %9, align 4, !tbaa !34
  %177 = load i32, ptr %20, align 4, !tbaa !34
  %178 = add nsw i32 %176, %177
  %179 = load i32, ptr %10, align 4, !tbaa !34
  %180 = load i32, ptr %21, align 4, !tbaa !34
  %181 = add nsw i32 %179, %180
  %182 = load i32, ptr %13, align 4, !tbaa !34
  %183 = mul nsw i32 %181, %182
  %184 = add nsw i32 %178, %183
  %185 = sext i32 %184 to i64
  %186 = getelementptr inbounds i8, ptr %175, i64 %185
  %187 = load i8, ptr %186, align 1, !tbaa !130
  %188 = zext i8 %187 to i32
  %189 = load ptr, ptr %12, align 8, !tbaa !102
  %190 = load i32, ptr %7, align 4, !tbaa !34
  %191 = load i32, ptr %20, align 4, !tbaa !34
  %192 = add nsw i32 %190, %191
  %193 = load i32, ptr %8, align 4, !tbaa !34
  %194 = load i32, ptr %21, align 4, !tbaa !34
  %195 = add nsw i32 %193, %194
  %196 = load i32, ptr %13, align 4, !tbaa !34
  %197 = mul nsw i32 %195, %196
  %198 = add nsw i32 %192, %197
  %199 = sext i32 %198 to i64
  %200 = getelementptr inbounds i8, ptr %189, i64 %199
  %201 = load i8, ptr %200, align 1, !tbaa !130
  %202 = zext i8 %201 to i32
  %203 = sub nsw i32 %188, %202
  %204 = sub nsw i32 0, %203
  br label %205

205:                                              ; preds = %174, %144
  %206 = phi i32 [ %173, %144 ], [ %204, %174 ]
  %207 = sext i32 %206 to i64
  %208 = load i64, ptr %22, align 8, !tbaa !116
  %209 = add i64 %208, %207
  store i64 %209, ptr %22, align 8, !tbaa !116
  br label %210

210:                                              ; preds = %205
  %211 = load i32, ptr %20, align 4, !tbaa !34
  %212 = add nsw i32 %211, 1
  store i32 %212, ptr %20, align 4, !tbaa !34
  br label %105, !llvm.loop !203

213:                                              ; preds = %105
  br label %214

214:                                              ; preds = %213
  %215 = load i32, ptr %21, align 4, !tbaa !34
  %216 = add nsw i32 %215, 1
  store i32 %216, ptr %21, align 4, !tbaa !34
  br label %91, !llvm.loop !204

217:                                              ; preds = %91
  %218 = load i64, ptr %22, align 8, !tbaa !116
  %219 = load i32, ptr %18, align 4, !tbaa !34
  %220 = load ptr, ptr %6, align 8, !tbaa !66
  %221 = getelementptr inbounds nuw %struct.AVMotionEstContext, ptr %220, i32 0, i32 11
  %222 = load i32, ptr %221, align 4, !tbaa !145
  %223 = sub nsw i32 %219, %222
  %224 = icmp sge i32 %223, 0
  br i1 %224, label %225, label %231

225:                                              ; preds = %217
  %226 = load i32, ptr %18, align 4, !tbaa !34
  %227 = load ptr, ptr %6, align 8, !tbaa !66
  %228 = getelementptr inbounds nuw %struct.AVMotionEstContext, ptr %227, i32 0, i32 11
  %229 = load i32, ptr %228, align 4, !tbaa !145
  %230 = sub nsw i32 %226, %229
  br label %238

231:                                              ; preds = %217
  %232 = load i32, ptr %18, align 4, !tbaa !34
  %233 = load ptr, ptr %6, align 8, !tbaa !66
  %234 = getelementptr inbounds nuw %struct.AVMotionEstContext, ptr %233, i32 0, i32 11
  %235 = load i32, ptr %234, align 4, !tbaa !145
  %236 = sub nsw i32 %232, %235
  %237 = sub nsw i32 0, %236
  br label %238

238:                                              ; preds = %231, %225
  %239 = phi i32 [ %230, %225 ], [ %237, %231 ]
  %240 = load i32, ptr %19, align 4, !tbaa !34
  %241 = load ptr, ptr %6, align 8, !tbaa !66
  %242 = getelementptr inbounds nuw %struct.AVMotionEstContext, ptr %241, i32 0, i32 12
  %243 = load i32, ptr %242, align 8, !tbaa !146
  %244 = sub nsw i32 %240, %243
  %245 = icmp sge i32 %244, 0
  br i1 %245, label %246, label %252

246:                                              ; preds = %238
  %247 = load i32, ptr %19, align 4, !tbaa !34
  %248 = load ptr, ptr %6, align 8, !tbaa !66
  %249 = getelementptr inbounds nuw %struct.AVMotionEstContext, ptr %248, i32 0, i32 12
  %250 = load i32, ptr %249, align 8, !tbaa !146
  %251 = sub nsw i32 %247, %250
  br label %259

252:                                              ; preds = %238
  %253 = load i32, ptr %19, align 4, !tbaa !34
  %254 = load ptr, ptr %6, align 8, !tbaa !66
  %255 = getelementptr inbounds nuw %struct.AVMotionEstContext, ptr %254, i32 0, i32 12
  %256 = load i32, ptr %255, align 8, !tbaa !146
  %257 = sub nsw i32 %253, %256
  %258 = sub nsw i32 0, %257
  br label %259

259:                                              ; preds = %252, %246
  %260 = phi i32 [ %251, %246 ], [ %258, %252 ]
  %261 = add nsw i32 %239, %260
  %262 = mul nsw i32 %261, 64
  %263 = sext i32 %262 to i64
  %264 = add i64 %218, %263
  call void @llvm.lifetime.end.p0(i64 8, ptr %22) #12
  call void @llvm.lifetime.end.p0(i64 4, ptr %21) #12
  call void @llvm.lifetime.end.p0(i64 4, ptr %20) #12
  call void @llvm.lifetime.end.p0(i64 4, ptr %19) #12
  call void @llvm.lifetime.end.p0(i64 4, ptr %18) #12
  call void @llvm.lifetime.end.p0(i64 4, ptr %17) #12
  call void @llvm.lifetime.end.p0(i64 4, ptr %16) #12
  call void @llvm.lifetime.end.p0(i64 4, ptr %15) #12
  call void @llvm.lifetime.end.p0(i64 4, ptr %14) #12
  call void @llvm.lifetime.end.p0(i64 4, ptr %13) #12
  call void @llvm.lifetime.end.p0(i64 8, ptr %12) #12
  call void @llvm.lifetime.end.p0(i64 8, ptr %11) #12
  ret i64 %264
}