; Function Attrs: nofree norecurse nosync nounwind memory(read, inaccessiblemem: none) uwtable
define internal i64 @get_sad_ob(ptr noundef readonly captures(none) %0, i32 noundef %1, i32 noundef %2, i32 noundef %3, i32 noundef %4) #6 {
  %6 = getelementptr inbounds nuw i8, ptr %0, i64 8
  %7 = load ptr, ptr %6, align 8, !tbaa !95
  %8 = load ptr, ptr %0, align 8, !tbaa !94
  %9 = getelementptr inbounds nuw i8, ptr %0, i64 16
  %10 = load i32, ptr %9, align 8, !tbaa !96
  %11 = getelementptr inbounds nuw i8, ptr %0, i64 36
  %12 = load i32, ptr %11, align 4, !tbaa !100
  %13 = getelementptr inbounds nuw i8, ptr %0, i64 20
  %14 = load i32, ptr %13, align 4, !tbaa !99
  %15 = sdiv i32 %14, 2
  %16 = add nsw i32 %15, %12
  %17 = getelementptr inbounds nuw i8, ptr %0, i64 40
  %18 = load i32, ptr %17, align 8, !tbaa !101
  %19 = sub nsw i32 %18, %15
  %20 = getelementptr inbounds nuw i8, ptr %0, i64 44
  %21 = load i32, ptr %20, align 4, !tbaa !97
  %22 = add nsw i32 %21, %15
  %23 = getelementptr inbounds nuw i8, ptr %0, i64 48
  %24 = load i32, ptr %23, align 8, !tbaa !98
  %25 = sub nsw i32 %24, %15
  %26 = icmp slt i32 %1, %16
  %..i96 = tail call i32 @llvm.smin.i32(i32 %1, i32 %19)
  %.0.i97 = select i1 %26, i32 %16, i32 %..i96
  %27 = icmp slt i32 %2, %22
  %..i94 = tail call i32 @llvm.smin.i32(i32 %2, i32 %25)
  %.0.i95 = select i1 %27, i32 %22, i32 %..i94
  %28 = icmp slt i32 %3, %16
  %..i92 = tail call i32 @llvm.smin.i32(i32 %3, i32 %19)
  %.0.i93 = select i1 %28, i32 %16, i32 %..i92
  %29 = icmp slt i32 %4, %22
  %..i = tail call i32 @llvm.smin.i32(i32 %4, i32 %25)
  %.0.i = select i1 %29, i32 %22, i32 %..i
  %30 = sdiv i32 %14, -2
  %31 = mul nsw i32 %14, 3
  %32 = sdiv i32 %31, 2
  %33 = icmp slt i32 %30, %32
  br i1 %33, label %.preheader.us.preheader, label %._crit_edge107

.preheader.us.preheader:                          ; preds = %5
  %34 = sext i32 %30 to i64
  %wide.trip.count = sext i32 %32 to i64
  br label %.preheader.us

.preheader.us:                                    ; preds = %.preheader.us.preheader, %._crit_edge.us
  %.0106.us = phi i64 [ %56, %._crit_edge.us ], [ 0, %.preheader.us.preheader ]
  %.084105.us = phi i32 [ %57, %._crit_edge.us ], [ %30, %.preheader.us.preheader ]
  %35 = add nsw i32 %.084105.us, %.0.i
  %36 = mul nsw i32 %35, %10
  %37 = add i32 %36, %.0.i93
  %38 = add nsw i32 %.084105.us, %.0.i95
  %39 = mul nsw i32 %38, %10
  %40 = add i32 %39, %.0.i97
  br label %41

41:                                               ; preds = %.preheader.us, %41
  %indvars.iv = phi i64 [ %34, %.preheader.us ], [ %indvars.iv.next, %41 ]
  %.1104.us = phi i64 [ %.0106.us, %.preheader.us ], [ %56, %41 ]
  %42 = trunc nsw i64 %indvars.iv to i32
  %43 = add i32 %37, %42
  %44 = sext i32 %43 to i64
  %45 = getelementptr inbounds i8, ptr %7, i64 %44
  %46 = load i8, ptr %45, align 1, !tbaa !76
  %47 = zext i8 %46 to i32
  %48 = add i32 %40, %42
  %49 = sext i32 %48 to i64
  %50 = getelementptr inbounds i8, ptr %8, i64 %49
  %51 = load i8, ptr %50, align 1, !tbaa !76
  %52 = zext i8 %51 to i32
  %53 = sub nsw i32 %47, %52
  %54 = tail call i32 @llvm.abs.i32(i32 %53, i1 true)
  %55 = zext nneg i32 %54 to i64
  %56 = add i64 %.1104.us, %55
  %indvars.iv.next = add nsw i64 %indvars.iv, 1
  %exitcond.not = icmp eq i64 %indvars.iv.next, %wide.trip.count
  br i1 %exitcond.not, label %._crit_edge.us, label %41, !llvm.loop !184

._crit_edge.us:                                   ; preds = %41
  %57 = add nsw i32 %.084105.us, 1
  %exitcond110.not = icmp eq i32 %57, %32
  br i1 %exitcond110.not, label %._crit_edge107, label %.preheader.us, !llvm.loop !185

._crit_edge107:                                   ; preds = %._crit_edge.us, %5
  %.0.lcssa = phi i64 [ 0, %5 ], [ %56, %._crit_edge.us ]
  %58 = getelementptr inbounds nuw i8, ptr %0, i64 52
  %59 = load i32, ptr %58, align 4, !tbaa !104
  %60 = add i32 %1, %59
  %61 = sub i32 %3, %60
  %62 = tail call i32 @llvm.abs.i32(i32 %61, i1 true)
  %63 = getelementptr inbounds nuw i8, ptr %0, i64 56
  %64 = load i32, ptr %63, align 8, !tbaa !105
  %65 = add i32 %2, %64
  %66 = sub i32 %4, %65
  %67 = tail call i32 @llvm.abs.i32(i32 %66, i1 true)
  %68 = add nuw nsw i32 %67, %62
  %69 = shl nsw i32 %68, 6
  %70 = zext nneg i32 %69 to i64
  %71 = add i64 %.0.lcssa, %70
  ret i64 %71
}